target datalayout = "e-m:e-p270:32:32-p271:32:32-p272:64:64-i64:64-i128:128-f80:128-n8:16:32:64-S128"
target triple = "x86_64-pc-linux-gnu"

%"struct.icu_77::LocaleDistanceData" = type { ptr, ptr, ptr, ptr, i32, ptr }
%"class.icu_77::LikelySubtags" = type { ptr, ptr, %"class.icu_77::CharStringMap", %"class.icu_77::CharStringMap", %"class.icu_77::BytesTrie", i64, i64, i32, [26 x i64], ptr, %"struct.icu_77::LocaleDistanceData" }
%"class.icu_77::CharStringMap" = type { ptr }
%"class.icu_77::BytesTrie" = type <{ ptr, ptr, ptr, i32, [4 x i8] }>

@_ZN6icu_7712_GLOBAL__N_115gLocaleDistanceE = internal global ptr null, align 8
@_ZN6icu_7714LocaleDistanceC1ERKNS_18LocaleDistanceDataERKNS_13LikelySubtagsE = unnamed_addr alias void (ptr, ptr, ptr), ptr @_ZN6icu_7714LocaleDistanceC2ERKNS_18LocaleDistanceDataERKNS_13LikelySubtagsE

; Function Attrs: mustprogress nounwind uwtable
define linkonce_odr noundef nonnull align 8 dereferenceable(48) ptr @_ZNK6icu_7713LikelySubtags15getDistanceDataEv(ptr noundef nonnull align 8 dereferenceable(352) %0) #4 comdat align 2 {
  %2 = alloca ptr, align 8
  store ptr %0, ptr %2, align 8, !tbaa !7
  %3 = load ptr, ptr %2, align 8
  %4 = getelementptr inbounds nuw %"class.icu_77::LikelySubtags", ptr %3, i32 0, i32 10
  ret ptr %4
}

; Function Attrs: inlinehint mustprogress nounwind uwtable
define internal noundef signext i8 @_ZL9U_FAILURE10UErrorCode(i32 noundef %0) #3 {
  %2 = alloca i32, align 4
  store i32 %0, ptr %2, align 4, !tbaa !9
  %3 = load i32, ptr %2, align 4, !tbaa !9
  %4 = icmp sgt i32 %3, 0
  %5 = zext i1 %4 to i8
  ret i8 %5
}

; Function Attrs: mustprogress uwtable
define void @_ZN6icu_7714LocaleDistance18initLocaleDistanceER10UErrorCode(ptr noundef nonnull align 4 dereferenceable(4) %0) #0 align 2 personality ptr @__gxx_personality_v0 {
  %2 = alloca ptr, align 8
  %3 = alloca ptr, align 8
  %4 = alloca i32, align 4
  %5 = alloca ptr, align 8
  %6 = alloca ptr, align 8
  %7 = alloca i1, align 1
  %8 = alloca ptr, align 8
  %9 = alloca i32, align 4
  store ptr %0, ptr %2, align 8, !tbaa !3
  call void @llvm.lifetime.start.p0(i64 8, ptr %3) #10
  %10 = load ptr, ptr %2, align 8, !tbaa !3
  %11 = call noundef ptr @_ZN6icu_7713LikelySubtags12getSingletonER10UErrorCode(ptr noundef nonnull align 4 dereferenceable(4) %10)
  store ptr %11, ptr %3, align 8, !tbaa !7
  %12 = load ptr, ptr %2, align 8, !tbaa !3
  %13 = load i32, ptr %12, align 4, !tbaa !9
  %14 = call noundef signext i8 @_ZL9U_FAILURE10UErrorCode(i32 noundef %13)
  %15 = icmp ne i8 %14, 0
  br i1 %15, label %16, label %17

16:                                               ; preds = %1
  store i32 1, ptr %4, align 4
  br label %64

17:                                               ; preds = %1
  call void @llvm.lifetime.start.p0(i64 8, ptr %5) #10
  %18 = load ptr, ptr %3, align 8, !tbaa !7
  %19 = call noundef nonnull align 8 dereferenceable(48) ptr @_ZNK6icu_7713LikelySubtags15getDistanceDataEv(ptr noundef nonnull align 8 dereferenceable(352) %18)
  store ptr %19, ptr %5, align 8, !tbaa !11
  %20 = load ptr, ptr %5, align 8, !tbaa !11
  %21 = getelementptr inbounds nuw %"struct.icu_77::LocaleDistanceData", ptr %20, i32 0, i32 0
  %22 = load ptr, ptr %21, align 8, !tbaa !13
  %23 = icmp eq ptr %22, null
  br i1 %23, label %39, label %24

24:                                               ; preds = %17
  %25 = load ptr, ptr %5, align 8, !tbaa !11
  %26 = getelementptr inbounds nuw %"struct.icu_77::LocaleDistanceData", ptr %25, i32 0, i32 1
  %27 = load ptr, ptr %26, align 8, !tbaa !21
  %28 = icmp eq ptr %27, null
  br i1 %28, label %39, label %29

29:                                               ; preds = %24
  %30 = load ptr, ptr %5, align 8, !tbaa !11
  %31 = getelementptr inbounds nuw %"struct.icu_77::LocaleDistanceData", ptr %30, i32 0, i32 2
  %32 = load ptr, ptr %31, align 8, !tbaa !22
  %33 = icmp eq ptr %32, null
  br i1 %33, label %39, label %34

34:                                               ; preds = %29
  %35 = load ptr, ptr %5, align 8, !tbaa !11
  %36 = getelementptr inbounds nuw %"struct.icu_77::LocaleDistanceData", ptr %35, i32 0, i32 5
  %37 = load ptr, ptr %36, align 8, !tbaa !23
  %38 = icmp eq ptr %37, null
  br i1 %38, label %39, label %41

39:                                               ; preds = %34, %29, %24, %17
  %40 = load ptr, ptr %2, align 8, !tbaa !3
  store i32 2, ptr %40, align 4, !tbaa !9
  store i32 1, ptr %4, align 4
  br label %63

41:                                               ; preds = %34
  %42 = call noundef ptr @_ZN6icu_777UMemorynwEm(i64 noundef 88) #10
  %43 = icmp eq ptr %42, null
  store i1 false, ptr %7, align 1
  br i1 %43, label %48, label %44

44:                                               ; preds = %41
  store ptr %42, ptr %6, align 8
  store i1 true, ptr %7, align 1
  %45 = load ptr, ptr %5, align 8, !tbaa !11
  %46 = load ptr, ptr %3, align 8, !tbaa !7
  invoke void @_ZN6icu_7714LocaleDistanceC1ERKNS_18LocaleDistanceDataERKNS_13LikelySubtagsE(ptr noundef nonnull align 8 dereferenceable(88) %42, ptr noundef nonnull align 8 dereferenceable(48) %45, ptr noundef nonnull align 8 dereferenceable(352) %46)
          to label %47 unwind label %54

47:                                               ; preds = %44
  br label %48

48:                                               ; preds = %47, %41
  %49 = phi ptr [ %42, %47 ], [ null, %41 ]
  store ptr %49, ptr @_ZN6icu_7712_GLOBAL__N_115gLocaleDistanceE, align 8, !tbaa !24
  %50 = load ptr, ptr @_ZN6icu_7712_GLOBAL__N_115gLocaleDistanceE, align 8, !tbaa !24
  %51 = icmp eq ptr %50, null
  br i1 %51, label %52, label %62

52:                                               ; preds = %48
  %53 = load ptr, ptr %2, align 8, !tbaa !3
  store i32 7, ptr %53, align 4, !tbaa !9
  store i32 1, ptr %4, align 4
  br label %63

54:                                               ; preds = %44
  %55 = landingpad { ptr, i32 }
          cleanup
  %56 = extractvalue { ptr, i32 } %55, 0
  store ptr %56, ptr %8, align 8
  %57 = extractvalue { ptr, i32 } %55, 1
  store i32 %57, ptr %9, align 4
  %58 = load i1, ptr %7, align 1
  br i1 %58, label %59, label %61

59:                                               ; preds = %54
  %60 = load ptr, ptr %6, align 8
  call void @_ZN6icu_777UMemorydlEPv(ptr noundef %60) #10
  br label %61

61:                                               ; preds = %59, %54
  call void @llvm.lifetime.end.p0(i64 8, ptr %5) #10
  call void @llvm.lifetime.end.p0(i64 8, ptr %3) #10
  br label %67

62:                                               ; preds = %48
  call void @ucln_common_registerCleanup_77(i32 noundef 11, ptr noundef @_ZN6icu_7712_GLOBAL__N_17cleanupEv)
  store i32 0, ptr %4, align 4
  br label %63

63:                                               ; preds = %62, %52, %39
  call void @llvm.lifetime.end.p0(i64 8, ptr %5) #10
  br label %64

64:                                               ; preds = %63, %16
  call void @llvm.lifetime.end.p0(i64 8, ptr %3) #10
  %65 = load i32, ptr %4, align 4
  switch i32 %65, label %72 [
    i32 0, label %66
    i32 1, label %66
  ]

66:                                               ; preds = %64, %64
  ret void

67:                                               ; preds = %61
  %68 = load ptr, ptr %8, align 8
  %69 = load i32, ptr %9, align 4
  %70 = insertvalue { ptr, i32 } poison, ptr %68, 0
  %71 = insertvalue { ptr, i32 } %70, i32 %69, 1
  resume { ptr, i32 } %71

72:                                               ; preds = %64
  unreachable
}