; Function Attrs: mustprogress uwtable
define void @_ZN6icu_7714LocaleDistance18initLocaleDistanceER10UErrorCode(ptr noundef nonnull align 4 dereferenceable(4) %0) local_unnamed_addr #0 align 2 personality ptr @__gxx_personality_v0 {
  %2 = tail call noundef ptr @_ZN6icu_7713LikelySubtags12getSingletonER10UErrorCode(ptr noundef nonnull align 4 dereferenceable(4) %0)
  %3 = load i32, ptr %0, align 4, !tbaa !3
  %4 = icmp slt i32 %3, 1
  br i1 %4, label %5, label %30

5:                                                ; preds = %1
  %6 = getelementptr inbounds nuw i8, ptr %2, i64 304
  %7 = load ptr, ptr %6, align 8, !tbaa !7
  %8 = icmp eq ptr %7, null
  br i1 %8, label %21, label %9

9:                                                ; preds = %5
  %10 = getelementptr inbounds nuw i8, ptr %2, i64 312
  %11 = load ptr, ptr %10, align 8, !tbaa !16
  %12 = icmp eq ptr %11, null
  br i1 %12, label %21, label %13

13:                                               ; preds = %9
  %14 = getelementptr inbounds nuw i8, ptr %2, i64 320
  %15 = load ptr, ptr %14, align 8, !tbaa !17
  %16 = icmp eq ptr %15, null
  br i1 %16, label %21, label %17

17:                                               ; preds = %13
  %18 = getelementptr inbounds nuw i8, ptr %2, i64 344
  %19 = load ptr, ptr %18, align 8, !tbaa !18
  %20 = icmp eq ptr %19, null
  br i1 %20, label %21, label %22

21:                                               ; preds = %17, %13, %9, %5
  store i32 2, ptr %0, align 4, !tbaa !3
  br label %30

22:                                               ; preds = %17
  %23 = tail call noundef ptr @_ZN6icu_777UMemorynwEm(i64 noundef 88) #10
  %24 = icmp eq ptr %23, null
  br i1 %24, label %26, label %25

25:                                               ; preds = %22
  invoke void @_ZN6icu_7714LocaleDistanceC1ERKNS_18LocaleDistanceDataERKNS_13LikelySubtagsE(ptr noundef nonnull align 8 dereferenceable(88) %23, ptr noundef nonnull align 8 dereferenceable(48) %6, ptr noundef nonnull align 8 dereferenceable(352) %2)
          to label %29 unwind label %27

26:                                               ; preds = %22
  store ptr null, ptr @_ZN6icu_7712_GLOBAL__N_115gLocaleDistanceE, align 8, !tbaa !19
  store i32 7, ptr %0, align 4, !tbaa !3
  br label %30

27:                                               ; preds = %25
  %28 = landingpad { ptr, i32 }
          cleanup
  tail call void @_ZN6icu_777UMemorydlEPv(ptr noundef nonnull %23) #10
  resume { ptr, i32 } %28

29:                                               ; preds = %25
  store ptr %23, ptr @_ZN6icu_7712_GLOBAL__N_115gLocaleDistanceE, align 8, !tbaa !19
  tail call void @ucln_common_registerCleanup_77(i32 noundef 11, ptr noundef nonnull @_ZN6icu_7712_GLOBAL__N_17cleanupEv)
  br label %30

30:                                               ; preds = %21, %26, %29, %1
  ret void
}